; Function Attrs: mustprogress uwtable
define noundef double @_ZNK8QuantLib2G212discountBondEdddd(ptr noundef nonnull align 8 dereferenceable(200) %this, double noundef %t, double noundef %T, double noundef %x, double noundef %y) local_unnamed_addr #8 align 2 {
entry:
  %call = tail call noundef double @_ZNK8QuantLib2G21AEdd(ptr noundef nonnull align 8 dereferenceable(200) %this, double noundef %t, double noundef %T)
  %a_.i = getelementptr inbounds nuw i8, ptr %this, i64 112
  %0 = load ptr, ptr %a_.i, align 8, !tbaa !45
  %1 = load ptr, ptr %0, align 8, !tbaa !69
  %cmp.not.i.i.i = icmp eq ptr %1, null
  br i1 %cmp.not.i.i.i, label %cond.false.i.i.i, label %_ZNK8QuantLib2G21aEv.exit, !prof !85

cond.false.i.i.i:                                 ; preds = %entry
  tail call void @_ZN5boost16assertion_failedEPKcS1_S1_l(ptr noundef nonnull @.str.11, ptr noundef nonnull @__PRETTY_FUNCTION__._ZNK5boost10shared_ptrIN8QuantLib9Parameter4ImplEEptEv, ptr noundef nonnull @.str.12, i64 noundef 784)
  %.pre.i.i.i = load ptr, ptr %0, align 8, !tbaa !69
  br label %_ZNK8QuantLib2G21aEv.exit

_ZNK8QuantLib2G21aEv.exit:                        ; preds = %entry, %cond.false.i.i.i
  %2 = phi ptr [ %1, %entry ], [ %.pre.i.i.i, %cond.false.i.i.i ]
  %params_.i.i = getelementptr inbounds nuw i8, ptr %0, i64 16
  %vtable.i.i = load ptr, ptr %2, align 8, !tbaa !35
  %vfn.i.i = getelementptr inbounds i8, ptr %vtable.i.i, i64 16
  %3 = load ptr, ptr %vfn.i.i, align 8
  %call2.i.i = tail call noundef double %3(ptr noundef nonnull align 8 dereferenceable(8) %2, ptr noundef nonnull align 8 dereferenceable(16) %params_.i.i, double noundef 0.000000e+00)
  %sub = fsub double %T, %t
  %fneg.i = fneg double %call2.i.i
  %mul.i = fmul double %sub, %fneg.i
  %call.i = tail call double @exp(double noundef %mul.i) #27, !tbaa !115
  %b_.i = getelementptr inbounds nuw i8, ptr %this, i64 128
  %4 = load ptr, ptr %b_.i, align 8, !tbaa !71
  %5 = load ptr, ptr %4, align 8, !tbaa !69
  %cmp.not.i.i.i5 = icmp eq ptr %5, null
  br i1 %cmp.not.i.i.i5, label %cond.false.i.i.i10, label %_ZNK8QuantLib2G21bEv.exit, !prof !85

cond.false.i.i.i10:                               ; preds = %_ZNK8QuantLib2G21aEv.exit
  tail call void @_ZN5boost16assertion_failedEPKcS1_S1_l(ptr noundef nonnull @.str.11, ptr noundef nonnull @__PRETTY_FUNCTION__._ZNK5boost10shared_ptrIN8QuantLib9Parameter4ImplEEptEv, ptr noundef nonnull @.str.12, i64 noundef 784)
  %.pre.i.i.i11 = load ptr, ptr %4, align 8, !tbaa !69
  br label %_ZNK8QuantLib2G21bEv.exit

_ZNK8QuantLib2G21bEv.exit:                        ; preds = %_ZNK8QuantLib2G21aEv.exit, %cond.false.i.i.i10
  %6 = phi ptr [ %5, %_ZNK8QuantLib2G21aEv.exit ], [ %.pre.i.i.i11, %cond.false.i.i.i10 ]
  %sub.i = fsub double 1.000000e+00, %call.i
  %7 = fneg double %sub.i
  %fneg = fdiv double %7, %call2.i.i
  %params_.i.i6 = getelementptr inbounds nuw i8, ptr %4, i64 16
  %vtable.i.i7 = load ptr, ptr %6, align 8, !tbaa !35
  %vfn.i.i8 = getelementptr inbounds i8, ptr %vtable.i.i7, i64 16
  %8 = load ptr, ptr %vfn.i.i8, align 8
  %call2.i.i9 = tail call noundef double %8(ptr noundef nonnull align 8 dereferenceable(8) %6, ptr noundef nonnull align 8 dereferenceable(16) %params_.i.i6, double noundef 0.000000e+00)
  %fneg.i12 = fneg double %call2.i.i9
  %mul.i13 = fmul double %sub, %fneg.i12
  %call.i14 = tail call double @exp(double noundef %mul.i13) #27, !tbaa !115
  %sub.i15 = fsub double 1.000000e+00, %call.i14
  %div.i16 = fdiv double %sub.i15, %call2.i.i9
  %9 = fneg double %y
  %neg = fmul double %div.i16, %9
  %10 = tail call double @llvm.fmuladd.f64(double %fneg, double %x, double %neg)
  %call8 = tail call double @exp(double noundef %10) #27, !tbaa !115
  %mul = fmul double %call, %call8
  ret double %mul
}